target datalayout = "e-m:e-p270:32:32-p271:32:32-p272:64:64-i64:64-i128:128-f80:128-n8:16:32:64-S128"
target triple = "x86_64-pc-linux-gnu"

%struct._lv_draw_sw_mask_common_dsc_t = type { ptr, i32 }
%struct.lv_area_t = type { i32, i32, i32, i32 }
%struct._lv_draw_sw_mask_map_param_t = type { %struct._lv_draw_sw_mask_common_dsc_t, %struct.anon.3 }
%struct.anon.3 = type { %struct.lv_area_t, ptr }

; Function Attrs: inlinehint nounwind uwtable
define internal void @lv_area_copy(ptr noundef %0, ptr noundef %1) #3 {
  %3 = alloca ptr, align 8
  %4 = alloca ptr, align 8
  store ptr %0, ptr %3, align 8, !tbaa !3
  store ptr %1, ptr %4, align 8, !tbaa !3
  %5 = load ptr, ptr %4, align 8, !tbaa !3
  %6 = getelementptr inbounds nuw %struct.lv_area_t, ptr %5, i32 0, i32 0
  %7 = load i32, ptr %6, align 4, !tbaa !61
  %8 = load ptr, ptr %3, align 8, !tbaa !3
  %9 = getelementptr inbounds nuw %struct.lv_area_t, ptr %8, i32 0, i32 0
  store i32 %7, ptr %9, align 4, !tbaa !61
  %10 = load ptr, ptr %4, align 8, !tbaa !3
  %11 = getelementptr inbounds nuw %struct.lv_area_t, ptr %10, i32 0, i32 1
  %12 = load i32, ptr %11, align 4, !tbaa !62
  %13 = load ptr, ptr %3, align 8, !tbaa !3
  %14 = getelementptr inbounds nuw %struct.lv_area_t, ptr %13, i32 0, i32 1
  store i32 %12, ptr %14, align 4, !tbaa !62
  %15 = load ptr, ptr %4, align 8, !tbaa !3
  %16 = getelementptr inbounds nuw %struct.lv_area_t, ptr %15, i32 0, i32 2
  %17 = load i32, ptr %16, align 4, !tbaa !63
  %18 = load ptr, ptr %3, align 8, !tbaa !3
  %19 = getelementptr inbounds nuw %struct.lv_area_t, ptr %18, i32 0, i32 2
  store i32 %17, ptr %19, align 4, !tbaa !63
  %20 = load ptr, ptr %4, align 8, !tbaa !3
  %21 = getelementptr inbounds nuw %struct.lv_area_t, ptr %20, i32 0, i32 3
  %22 = load i32, ptr %21, align 4, !tbaa !64
  %23 = load ptr, ptr %3, align 8, !tbaa !3
  %24 = getelementptr inbounds nuw %struct.lv_area_t, ptr %23, i32 0, i32 3
  store i32 %22, ptr %24, align 4, !tbaa !64
  ret void
}

; Function Attrs: nounwind uwtable
define void @lv_draw_sw_mask_map_init(ptr noundef %0, ptr noundef %1, ptr noundef %2) #0 {
  %4 = alloca ptr, align 8
  %5 = alloca ptr, align 8
  %6 = alloca ptr, align 8
  store ptr %0, ptr %4, align 8, !tbaa !3
  store ptr %1, ptr %5, align 8, !tbaa !3
  store ptr %2, ptr %6, align 8, !tbaa !3
  %7 = load ptr, ptr %4, align 8, !tbaa !3
  %8 = getelementptr inbounds nuw %struct._lv_draw_sw_mask_map_param_t, ptr %7, i32 0, i32 1
  %9 = getelementptr inbounds nuw %struct.anon.3, ptr %8, i32 0, i32 0
  %10 = load ptr, ptr %5, align 8, !tbaa !3
  call void @lv_area_copy(ptr noundef %9, ptr noundef %10)
  %11 = load ptr, ptr %6, align 8, !tbaa !3
  %12 = load ptr, ptr %4, align 8, !tbaa !3
  %13 = getelementptr inbounds nuw %struct._lv_draw_sw_mask_map_param_t, ptr %12, i32 0, i32 1
  %14 = getelementptr inbounds nuw %struct.anon.3, ptr %13, i32 0, i32 1
  store ptr %11, ptr %14, align 8, !tbaa !90
  %15 = load ptr, ptr %4, align 8, !tbaa !3
  %16 = getelementptr inbounds nuw %struct._lv_draw_sw_mask_map_param_t, ptr %15, i32 0, i32 0
  %17 = getelementptr inbounds nuw %struct._lv_draw_sw_mask_common_dsc_t, ptr %16, i32 0, i32 0
  store ptr @lv_draw_mask_map, ptr %17, align 8, !tbaa !93
  %18 = load ptr, ptr %4, align 8, !tbaa !3
  %19 = getelementptr inbounds nuw %struct._lv_draw_sw_mask_map_param_t, ptr %18, i32 0, i32 0
  %20 = getelementptr inbounds nuw %struct._lv_draw_sw_mask_common_dsc_t, ptr %19, i32 0, i32 1
  store i32 4, ptr %20, align 8, !tbaa !94
  ret void
}