; Function Attrs: mustprogress nofree norecurse nosync nounwind willreturn memory(argmem: readwrite) uwtable
define void @lv_draw_sw_mask_map_init(ptr nocapture noundef writeonly %0, ptr nocapture noundef readonly %1, ptr noundef %2) local_unnamed_addr #3 {
  %4 = getelementptr inbounds nuw i8, ptr %0, i64 16
  %5 = load i32, ptr %1, align 4, !tbaa !47
  store i32 %5, ptr %4, align 4, !tbaa !47
  %6 = getelementptr inbounds nuw i8, ptr %1, i64 4
  %7 = load i32, ptr %6, align 4, !tbaa !48
  %8 = getelementptr inbounds nuw i8, ptr %0, i64 20
  store i32 %7, ptr %8, align 4, !tbaa !48
  %9 = getelementptr inbounds nuw i8, ptr %1, i64 8
  %10 = load i32, ptr %9, align 4, !tbaa !49
  %11 = getelementptr inbounds nuw i8, ptr %0, i64 24
  store i32 %10, ptr %11, align 4, !tbaa !49
  %12 = getelementptr inbounds nuw i8, ptr %1, i64 12
  %13 = load i32, ptr %12, align 4, !tbaa !50
  %14 = getelementptr inbounds nuw i8, ptr %0, i64 28
  store i32 %13, ptr %14, align 4, !tbaa !50
  %15 = getelementptr inbounds nuw i8, ptr %0, i64 32
  store ptr %2, ptr %15, align 8, !tbaa !83
  store ptr @lv_draw_mask_map, ptr %0, align 8, !tbaa !86
  %16 = getelementptr inbounds nuw i8, ptr %0, i64 8
  store i32 4, ptr %16, align 8, !tbaa !87
  ret void
}